target datalayout = "e-m:e-p270:32:32-p271:32:32-p272:64:64-i64:64-i128:128-f80:128-n8:16:32:64-S128"
target triple = "x86_64-pc-linux-gnu"

%struct._GArray = type { ptr, i32 }
%struct.file_type_subtype_info = type { ptr, ptr, ptr, ptr, i8, i64, ptr, ptr, ptr, ptr }
%struct.wtap_wslua_file_info = type { ptr, ptr }

@file_type_subtype_table_arr = internal global ptr null, align 8
@file_type_subtype_table = internal global ptr null, align 8

; Function Attrs: null_pointer_is_valid sspstrong uwtable
define zeroext i1 @wtap_dump_can_write_encap(i32 noundef %0, i32 noundef %1) #0 {
  %3 = alloca i1, align 1
  %4 = alloca i32, align 4
  %5 = alloca i32, align 4
  %6 = alloca i32, align 4
  %7 = alloca i32, align 4
  store i32 %0, ptr %4, align 4
  store i32 %1, ptr %5, align 4
  call void @llvm.lifetime.start.p0(i64 4, ptr %6) #12
  store i32 0, ptr %6, align 4
  %8 = load i32, ptr %4, align 4
  %9 = icmp slt i32 %8, 0
  br i1 %9, label %24, label %10

10:                                               ; preds = %2
  %11 = load i32, ptr %4, align 4
  %12 = load ptr, ptr @file_type_subtype_table_arr, align 8
  %13 = getelementptr inbounds nuw %struct._GArray, ptr %12, i32 0, i32 1
  %14 = load i32, ptr %13, align 8
  %15 = icmp sge i32 %11, %14
  br i1 %15, label %24, label %16

16:                                               ; preds = %10
  %17 = load ptr, ptr @file_type_subtype_table, align 8
  %18 = load i32, ptr %4, align 4
  %19 = sext i32 %18 to i64
  %20 = getelementptr %struct.file_type_subtype_info, ptr %17, i64 %19
  %21 = getelementptr inbounds nuw %struct.file_type_subtype_info, ptr %20, i32 0, i32 7
  %22 = load ptr, ptr %21, align 8
  %23 = icmp eq ptr %22, null
  br i1 %23, label %24, label %25

24:                                               ; preds = %16, %10, %2
  store i1 false, ptr %3, align 1
  store i32 1, ptr %7, align 4
  br label %82

25:                                               ; preds = %16
  %26 = load ptr, ptr @file_type_subtype_table, align 8
  %27 = load i32, ptr %4, align 4
  %28 = sext i32 %27 to i64
  %29 = getelementptr %struct.file_type_subtype_info, ptr %26, i64 %28
  %30 = getelementptr inbounds nuw %struct.file_type_subtype_info, ptr %29, i32 0, i32 7
  %31 = load ptr, ptr %30, align 8
  %32 = load i32, ptr %5, align 4
  %33 = call i32 %31(i32 noundef %32)
  store i32 %33, ptr %6, align 4
  %34 = load i32, ptr %6, align 4
  %35 = icmp ne i32 %34, 0
  br i1 %35, label %36, label %81

36:                                               ; preds = %25
  %37 = load i32, ptr %6, align 4
  %38 = icmp eq i32 %37, -23
  br i1 %38, label %39, label %76

39:                                               ; preds = %36
  %40 = load ptr, ptr @file_type_subtype_table, align 8
  %41 = load i32, ptr %4, align 4
  %42 = sext i32 %41 to i64
  %43 = getelementptr %struct.file_type_subtype_info, ptr %40, i64 %42
  %44 = getelementptr inbounds nuw %struct.file_type_subtype_info, ptr %43, i32 0, i32 9
  %45 = load ptr, ptr %44, align 8
  %46 = icmp ne ptr %45, null
  br i1 %46, label %47, label %76

47:                                               ; preds = %39
  %48 = load ptr, ptr @file_type_subtype_table, align 8
  %49 = load i32, ptr %4, align 4
  %50 = sext i32 %49 to i64
  %51 = getelementptr %struct.file_type_subtype_info, ptr %48, i64 %50
  %52 = getelementptr inbounds nuw %struct.file_type_subtype_info, ptr %51, i32 0, i32 9
  %53 = load ptr, ptr %52, align 8
  %54 = getelementptr inbounds nuw %struct.wtap_wslua_file_info, ptr %53, i32 0, i32 0
  %55 = load ptr, ptr %54, align 8
  %56 = icmp ne ptr %55, null
  br i1 %56, label %57, label %76

57:                                               ; preds = %47
  %58 = load ptr, ptr @file_type_subtype_table, align 8
  %59 = load i32, ptr %4, align 4
  %60 = sext i32 %59 to i64
  %61 = getelementptr %struct.file_type_subtype_info, ptr %58, i64 %60
  %62 = getelementptr inbounds nuw %struct.file_type_subtype_info, ptr %61, i32 0, i32 9
  %63 = load ptr, ptr %62, align 8
  %64 = getelementptr inbounds nuw %struct.wtap_wslua_file_info, ptr %63, i32 0, i32 0
  %65 = load ptr, ptr %64, align 8
  %66 = load i32, ptr %5, align 4
  %67 = load ptr, ptr @file_type_subtype_table, align 8
  %68 = load i32, ptr %4, align 4
  %69 = sext i32 %68 to i64
  %70 = getelementptr %struct.file_type_subtype_info, ptr %67, i64 %69
  %71 = getelementptr inbounds nuw %struct.file_type_subtype_info, ptr %70, i32 0, i32 9
  %72 = load ptr, ptr %71, align 8
  %73 = getelementptr inbounds nuw %struct.wtap_wslua_file_info, ptr %72, i32 0, i32 1
  %74 = load ptr, ptr %73, align 8
  %75 = call i32 %65(i32 noundef %66, ptr noundef %74)
  store i32 %75, ptr %6, align 4
  br label %76

76:                                               ; preds = %57, %47, %39, %36
  %77 = load i32, ptr %6, align 4
  %78 = icmp ne i32 %77, 0
  br i1 %78, label %79, label %80

79:                                               ; preds = %76
  store i1 false, ptr %3, align 1
  store i32 1, ptr %7, align 4
  br label %82

80:                                               ; preds = %76
  br label %81

81:                                               ; preds = %80, %25
  store i1 true, ptr %3, align 1
  store i32 1, ptr %7, align 4
  br label %82

82:                                               ; preds = %81, %79, %24
  call void @llvm.lifetime.end.p0(i64 4, ptr %6) #12
  %83 = load i1, ptr %3, align 1
  ret i1 %83
}