; Function Attrs: null_pointer_is_valid sspstrong uwtable
define noundef zeroext i1 @wtap_dump_can_write_encap(i32 noundef %0, i32 noundef %1) local_unnamed_addr #0 {
  %3 = icmp slt i32 %0, 0
  br i1 %3, label %.critedge, label %4

4:                                                ; preds = %2
  %5 = load ptr, ptr @file_type_subtype_table_arr, align 8
  %6 = getelementptr inbounds nuw i8, ptr %5, i64 8
  %7 = load i32, ptr %6, align 8
  %.not = icmp slt i32 %0, %7
  br i1 %.not, label %8, label %.critedge

8:                                                ; preds = %4
  %9 = load ptr, ptr @file_type_subtype_table, align 8
  %10 = zext nneg i32 %0 to i64
  %11 = getelementptr %struct.file_type_subtype_info, ptr %9, i64 %10, i32 7
  %12 = load ptr, ptr %11, align 8
  %13 = icmp eq ptr %12, null
  br i1 %13, label %.critedge, label %14

14:                                               ; preds = %8
  %15 = tail call i32 %12(i32 noundef %1)
  switch i32 %15, label %.critedge [
    i32 0, label %27
    i32 -23, label %16
  ]

16:                                               ; preds = %14
  %17 = load ptr, ptr @file_type_subtype_table, align 8
  %18 = getelementptr %struct.file_type_subtype_info, ptr %17, i64 %10, i32 9
  %19 = load ptr, ptr %18, align 8
  %.not20 = icmp eq ptr %19, null
  br i1 %.not20, label %.critedge, label %20

20:                                               ; preds = %16
  %21 = load ptr, ptr %19, align 8
  %.not21 = icmp eq ptr %21, null
  br i1 %.not21, label %.critedge, label %22

22:                                               ; preds = %20
  %23 = getelementptr inbounds nuw i8, ptr %19, i64 8
  %24 = load ptr, ptr %23, align 8
  %25 = tail call i32 %21(i32 noundef %1, ptr noundef %24)
  %26 = icmp eq i32 %25, 0
  br i1 %26, label %27, label %.critedge

27:                                               ; preds = %14, %22
  br label %.critedge

.critedge:                                        ; preds = %20, %16, %14, %22, %2, %4, %8, %27
  %.013 = phi i1 [ true, %27 ], [ false, %8 ], [ false, %4 ], [ false, %2 ], [ false, %22 ], [ false, %14 ], [ false, %16 ], [ false, %20 ]
  ret i1 %.013
}